;
; Definition file of libgmpxx-4.dll
; Automatic generated by gendef
; written by Kai Tietz 2008
;
LIBRARY "libgmpxx-4.dll"
EXPORTS
_Z22__gmp_istream_set_baseRSiRcRbS1_
_Z24__gmp_istream_set_digitsRNSt7__cxx1112basic_stringIcSt11char_traitsIcESaIcEEERSiRcRbi
_Z26__gmpz_operator_in_nowhiteRSiP12__mpz_structc
_Z28__gmp_doprnt_integer_ostreamRSoP15doprnt_params_tPc
_Z28__gmp_doprnt_params_from_iosP15doprnt_params_tRSt9basic_iosIcSt11char_traitsIcEE
_ZNKSt5ctypeIcE8do_widenEc
_ZNSt14numeric_limitsI10__gmp_exprIA1_12__mpf_structS2_EE10has_denormE DATA
_ZNSt14numeric_limitsI10__gmp_exprIA1_12__mpf_structS2_EE10is_boundedE DATA
_ZNSt14numeric_limitsI10__gmp_exprIA1_12__mpf_structS2_EE10is_integerE DATA
_ZNSt14numeric_limitsI10__gmp_exprIA1_12__mpf_structS2_EE11round_styleE DATA
_ZNSt14numeric_limitsI10__gmp_exprIA1_12__mpf_structS2_EE12has_infinityE DATA
_ZNSt14numeric_limitsI10__gmp_exprIA1_12__mpf_structS2_EE12max_digits10E DATA
_ZNSt14numeric_limitsI10__gmp_exprIA1_12__mpf_structS2_EE12max_exponentE DATA
_ZNSt14numeric_limitsI10__gmp_exprIA1_12__mpf_structS2_EE12min_exponentE DATA
_ZNSt14numeric_limitsI10__gmp_exprIA1_12__mpf_structS2_EE13has_quiet_NaNE DATA
_ZNSt14numeric_limitsI10__gmp_exprIA1_12__mpf_structS2_EE14is_specializedE DATA
_ZNSt14numeric_limitsI10__gmp_exprIA1_12__mpf_structS2_EE14max_exponent10E DATA
_ZNSt14numeric_limitsI10__gmp_exprIA1_12__mpf_structS2_EE14min_exponent10E DATA
_ZNSt14numeric_limitsI10__gmp_exprIA1_12__mpf_structS2_EE15has_denorm_lossE DATA
_ZNSt14numeric_limitsI10__gmp_exprIA1_12__mpf_structS2_EE15tinyness_beforeE DATA
_ZNSt14numeric_limitsI10__gmp_exprIA1_12__mpf_structS2_EE17has_signaling_NaNE DATA
_ZNSt14numeric_limitsI10__gmp_exprIA1_12__mpf_structS2_EE5radixE DATA
_ZNSt14numeric_limitsI10__gmp_exprIA1_12__mpf_structS2_EE5trapsE DATA
_ZNSt14numeric_limitsI10__gmp_exprIA1_12__mpf_structS2_EE6digitsE DATA
_ZNSt14numeric_limitsI10__gmp_exprIA1_12__mpf_structS2_EE8digits10E DATA
_ZNSt14numeric_limitsI10__gmp_exprIA1_12__mpf_structS2_EE8is_exactE DATA
_ZNSt14numeric_limitsI10__gmp_exprIA1_12__mpf_structS2_EE9is_iec559E DATA
_ZNSt14numeric_limitsI10__gmp_exprIA1_12__mpf_structS2_EE9is_moduloE DATA
_ZNSt14numeric_limitsI10__gmp_exprIA1_12__mpf_structS2_EE9is_signedE DATA
_ZNSt14numeric_limitsI10__gmp_exprIA1_12__mpq_structS2_EE10has_denormE DATA
_ZNSt14numeric_limitsI10__gmp_exprIA1_12__mpq_structS2_EE10is_boundedE DATA
_ZNSt14numeric_limitsI10__gmp_exprIA1_12__mpq_structS2_EE10is_integerE DATA
_ZNSt14numeric_limitsI10__gmp_exprIA1_12__mpq_structS2_EE11round_styleE DATA
_ZNSt14numeric_limitsI10__gmp_exprIA1_12__mpq_structS2_EE12has_infinityE DATA
_ZNSt14numeric_limitsI10__gmp_exprIA1_12__mpq_structS2_EE12max_digits10E DATA
_ZNSt14numeric_limitsI10__gmp_exprIA1_12__mpq_structS2_EE12max_exponentE DATA
_ZNSt14numeric_limitsI10__gmp_exprIA1_12__mpq_structS2_EE12min_exponentE DATA
_ZNSt14numeric_limitsI10__gmp_exprIA1_12__mpq_structS2_EE13has_quiet_NaNE DATA
_ZNSt14numeric_limitsI10__gmp_exprIA1_12__mpq_structS2_EE14is_specializedE DATA
_ZNSt14numeric_limitsI10__gmp_exprIA1_12__mpq_structS2_EE14max_exponent10E DATA
_ZNSt14numeric_limitsI10__gmp_exprIA1_12__mpq_structS2_EE14min_exponent10E DATA
_ZNSt14numeric_limitsI10__gmp_exprIA1_12__mpq_structS2_EE15has_denorm_lossE DATA
_ZNSt14numeric_limitsI10__gmp_exprIA1_12__mpq_structS2_EE15tinyness_beforeE DATA
_ZNSt14numeric_limitsI10__gmp_exprIA1_12__mpq_structS2_EE17has_signaling_NaNE DATA
_ZNSt14numeric_limitsI10__gmp_exprIA1_12__mpq_structS2_EE5radixE DATA
_ZNSt14numeric_limitsI10__gmp_exprIA1_12__mpq_structS2_EE5trapsE DATA
_ZNSt14numeric_limitsI10__gmp_exprIA1_12__mpq_structS2_EE6digitsE DATA
_ZNSt14numeric_limitsI10__gmp_exprIA1_12__mpq_structS2_EE8digits10E DATA
_ZNSt14numeric_limitsI10__gmp_exprIA1_12__mpq_structS2_EE8is_exactE DATA
_ZNSt14numeric_limitsI10__gmp_exprIA1_12__mpq_structS2_EE9is_iec559E DATA
_ZNSt14numeric_limitsI10__gmp_exprIA1_12__mpq_structS2_EE9is_moduloE DATA
_ZNSt14numeric_limitsI10__gmp_exprIA1_12__mpq_structS2_EE9is_signedE DATA
_ZNSt14numeric_limitsI10__gmp_exprIA1_12__mpz_structS2_EE10has_denormE DATA
_ZNSt14numeric_limitsI10__gmp_exprIA1_12__mpz_structS2_EE10is_boundedE DATA
_ZNSt14numeric_limitsI10__gmp_exprIA1_12__mpz_structS2_EE10is_integerE DATA
_ZNSt14numeric_limitsI10__gmp_exprIA1_12__mpz_structS2_EE11round_styleE DATA
_ZNSt14numeric_limitsI10__gmp_exprIA1_12__mpz_structS2_EE12has_infinityE DATA
_ZNSt14numeric_limitsI10__gmp_exprIA1_12__mpz_structS2_EE12max_digits10E DATA
_ZNSt14numeric_limitsI10__gmp_exprIA1_12__mpz_structS2_EE12max_exponentE DATA
_ZNSt14numeric_limitsI10__gmp_exprIA1_12__mpz_structS2_EE12min_exponentE DATA
_ZNSt14numeric_limitsI10__gmp_exprIA1_12__mpz_structS2_EE13has_quiet_NaNE DATA
_ZNSt14numeric_limitsI10__gmp_exprIA1_12__mpz_structS2_EE14is_specializedE DATA
_ZNSt14numeric_limitsI10__gmp_exprIA1_12__mpz_structS2_EE14max_exponent10E DATA
_ZNSt14numeric_limitsI10__gmp_exprIA1_12__mpz_structS2_EE14min_exponent10E DATA
_ZNSt14numeric_limitsI10__gmp_exprIA1_12__mpz_structS2_EE15has_denorm_lossE DATA
_ZNSt14numeric_limitsI10__gmp_exprIA1_12__mpz_structS2_EE15tinyness_beforeE DATA
_ZNSt14numeric_limitsI10__gmp_exprIA1_12__mpz_structS2_EE17has_signaling_NaNE DATA
_ZNSt14numeric_limitsI10__gmp_exprIA1_12__mpz_structS2_EE5radixE DATA
_ZNSt14numeric_limitsI10__gmp_exprIA1_12__mpz_structS2_EE5trapsE DATA
_ZNSt14numeric_limitsI10__gmp_exprIA1_12__mpz_structS2_EE6digitsE DATA
_ZNSt14numeric_limitsI10__gmp_exprIA1_12__mpz_structS2_EE8digits10E DATA
_ZNSt14numeric_limitsI10__gmp_exprIA1_12__mpz_structS2_EE8is_exactE DATA
_ZNSt14numeric_limitsI10__gmp_exprIA1_12__mpz_structS2_EE9is_iec559E DATA
_ZNSt14numeric_limitsI10__gmp_exprIA1_12__mpz_structS2_EE9is_moduloE DATA
_ZNSt14numeric_limitsI10__gmp_exprIA1_12__mpz_structS2_EE9is_signedE DATA
_ZlsRSoPK12__mpf_struct
_ZlsRSoPK12__mpq_struct
_ZlsRSoPK12__mpz_struct
_ZrsRSiP12__mpf_struct
_ZrsRSiP12__mpq_struct
_ZrsRSiP12__mpz_struct
__gmp_asprintf_funs_noformat DATA
