;
; Definition file of libpcrecpp-0.dll
; Automatic generated by gendef
; written by Kai Tietz 2008
;
LIBRARY "libpcrecpp-0.dll"
EXPORTS
_ZN7pcrecpp2RE4InitERKNSt7__cxx1112basic_stringIcSt11char_traitsIcESaIcEEEPKNS_10RE_OptionsE
_ZN7pcrecpp2RE6no_argE DATA
_ZN7pcrecpp2RE7CleanupEv
_ZN7pcrecpp2RE7CompileENS0_6AnchorE
_ZN7pcrecpp2RE9QuoteMetaB5cxx11ERKNS_11StringPieceE
_ZN7pcrecpp2RED1Ev
_ZN7pcrecpp2RED2Ev
_ZN7pcrecpp3Arg10parse_charEPKciPv
_ZN7pcrecpp3Arg10parse_longEPKciPv
_ZN7pcrecpp3Arg10parse_nullEPKciPv
_ZN7pcrecpp3Arg10parse_uintEPKciPv
_ZN7pcrecpp3Arg11parse_floatEPKciPv
_ZN7pcrecpp3Arg11parse_shortEPKciPv
_ZN7pcrecpp3Arg11parse_ucharEPKciPv
_ZN7pcrecpp3Arg11parse_ulongEPKciPv
_ZN7pcrecpp3Arg12parse_doubleEPKciPv
_ZN7pcrecpp3Arg12parse_stringEPKciPv
_ZN7pcrecpp3Arg12parse_ushortEPKciPv
_ZN7pcrecpp3Arg13parse_int_hexEPKciPv
_ZN7pcrecpp3Arg14parse_long_hexEPKciPv
_ZN7pcrecpp3Arg14parse_longlongEPKciPv
_ZN7pcrecpp3Arg14parse_uint_hexEPKciPv
_ZN7pcrecpp3Arg15parse_int_octalEPKciPv
_ZN7pcrecpp3Arg15parse_int_radixEPKciPvi
_ZN7pcrecpp3Arg15parse_short_hexEPKciPv
_ZN7pcrecpp3Arg15parse_ulong_hexEPKciPv
_ZN7pcrecpp3Arg15parse_ulonglongEPKciPv
_ZN7pcrecpp3Arg16parse_int_cradixEPKciPv
_ZN7pcrecpp3Arg16parse_long_octalEPKciPv
_ZN7pcrecpp3Arg16parse_long_radixEPKciPvi
_ZN7pcrecpp3Arg16parse_uint_octalEPKciPv
_ZN7pcrecpp3Arg16parse_uint_radixEPKciPvi
_ZN7pcrecpp3Arg16parse_ushort_hexEPKciPv
_ZN7pcrecpp3Arg17parse_long_cradixEPKciPv
_ZN7pcrecpp3Arg17parse_short_octalEPKciPv
_ZN7pcrecpp3Arg17parse_short_radixEPKciPvi
_ZN7pcrecpp3Arg17parse_stringpieceEPKciPv
_ZN7pcrecpp3Arg17parse_uint_cradixEPKciPv
_ZN7pcrecpp3Arg17parse_ulong_octalEPKciPv
_ZN7pcrecpp3Arg17parse_ulong_radixEPKciPvi
_ZN7pcrecpp3Arg18parse_longlong_hexEPKciPv
_ZN7pcrecpp3Arg18parse_short_cradixEPKciPv
_ZN7pcrecpp3Arg18parse_ulong_cradixEPKciPv
_ZN7pcrecpp3Arg18parse_ushort_octalEPKciPv
_ZN7pcrecpp3Arg18parse_ushort_radixEPKciPvi
_ZN7pcrecpp3Arg19parse_ulonglong_hexEPKciPv
_ZN7pcrecpp3Arg19parse_ushort_cradixEPKciPv
_ZN7pcrecpp3Arg20parse_longlong_octalEPKciPv
_ZN7pcrecpp3Arg20parse_longlong_radixEPKciPvi
_ZN7pcrecpp3Arg21parse_longlong_cradixEPKciPv
_ZN7pcrecpp3Arg21parse_ulonglong_octalEPKciPv
_ZN7pcrecpp3Arg21parse_ulonglong_radixEPKciPvi
_ZN7pcrecpp3Arg22parse_ulonglong_cradixEPKciPv
_ZN7pcrecpp3Arg9parse_intEPKciPv
_ZN7pcrecpp7Scanner10EnableSkipEv
_ZN7pcrecpp7Scanner11ConsumeSkipEv
_ZN7pcrecpp7Scanner11DisableSkipEv
_ZN7pcrecpp7Scanner11GetCommentsEiiPSt6vectorINS_11StringPieceESaIS2_EE
_ZN7pcrecpp7Scanner15GetNextCommentsEPSt6vectorINS_11StringPieceESaIS2_EE
_ZN7pcrecpp7Scanner17SetSkipExpressionEPKc
_ZN7pcrecpp7Scanner4SkipEPKc
_ZN7pcrecpp7Scanner7ConsumeERKNS_2REERKNS_3ArgES6_S6_
_ZN7pcrecpp7ScannerC1ERKNSt7__cxx1112basic_stringIcSt11char_traitsIcESaIcEEE
_ZN7pcrecpp7ScannerC1Ev
_ZN7pcrecpp7ScannerC2ERKNSt7__cxx1112basic_stringIcSt11char_traitsIcESaIcEEE
_ZN7pcrecpp7ScannerC2Ev
_ZN7pcrecpp7ScannerD1Ev
_ZN7pcrecpp7ScannerD2Ev
_ZNK7pcrecpp2RE11DoMatchImplERKNS_11StringPieceENS0_6AnchorEPiPKPKNS_3ArgEiS5_i
_ZNK7pcrecpp2RE12PartialMatchERKNS_11StringPieceERKNS_3ArgES6_S6_S6_S6_S6_S6_S6_S6_S6_S6_S6_S6_S6_S6_S6_
_ZNK7pcrecpp2RE13GlobalReplaceERKNS_11StringPieceEPNSt7__cxx1112basic_stringIcSt11char_traitsIcESaIcEEE
_ZNK7pcrecpp2RE14FindAndConsumeEPNS_11StringPieceERKNS_3ArgES5_S5_S5_S5_S5_S5_S5_S5_S5_S5_S5_S5_S5_S5_S5_
_ZNK7pcrecpp2RE23NumberOfCapturingGroupsEv
_ZNK7pcrecpp2RE7ConsumeEPNS_11StringPieceERKNS_3ArgES5_S5_S5_S5_S5_S5_S5_S5_S5_S5_S5_S5_S5_S5_S5_
_ZNK7pcrecpp2RE7DoMatchERKNS_11StringPieceENS0_6AnchorEPiPKPKNS_3ArgEi
_ZNK7pcrecpp2RE7ExtractERKNS_11StringPieceES3_PNSt7__cxx1112basic_stringIcSt11char_traitsIcESaIcEEE
_ZNK7pcrecpp2RE7ReplaceERKNS_11StringPieceEPNSt7__cxx1112basic_stringIcSt11char_traitsIcESaIcEEE
_ZNK7pcrecpp2RE7RewriteEPNSt7__cxx1112basic_stringIcSt11char_traitsIcESaIcEEERKNS_11StringPieceESA_Pii
_ZNK7pcrecpp2RE8TryMatchERKNS_11StringPieceEiNS0_6AnchorEbPii
_ZNK7pcrecpp2RE9FullMatchERKNS_11StringPieceERKNS_3ArgES6_S6_S6_S6_S6_S6_S6_S6_S6_S6_S6_S6_S6_S6_S6_
_ZNK7pcrecpp7Scanner10LineNumberEv
_ZNK7pcrecpp7Scanner6OffsetEv
_ZNK7pcrecpp7Scanner9LookingAtERKNS_2REE
_ZNSt6vectorIN7pcrecpp11StringPieceESaIS1_EE17_M_realloc_insertIJRKS1_EEEvN9__gnu_cxx17__normal_iteratorIPS1_S3_EEDpOT_
_ZlsRSoRKN7pcrecpp11StringPieceE
